; Function Attrs: mustprogress uwtable
define void @_ZN9grpc_core8internal27UnsetGlobalXdsClientForTestEv() local_unnamed_addr #5 personality ptr @__gxx_personality_v0 {
entry:
  %0 = load ptr, ptr @_ZN9grpc_core12_GLOBAL__N_14g_muE, align 8
  tail call void @_ZN4absl12lts_202308025Mutex4LockEv(ptr noundef nonnull align 8 dereferenceable(8) %0)
  store ptr null, ptr @_ZN9grpc_core12_GLOBAL__N_112g_xds_clientE, align 8
  invoke void @_ZN4absl12lts_202308025Mutex6UnlockEv(ptr noundef nonnull align 8 dereferenceable(8) %0)
          to label %_ZN4absl12lts_202308029MutexLockD2Ev.exit unwind label %terminate.lpad.i

terminate.lpad.i:                                 ; preds = %entry
  %1 = landingpad { ptr, i32 }
          catch ptr null
  %2 = extractvalue { ptr, i32 } %1, 0
  tail call void @__clang_call_terminate(ptr %2) #25
  unreachable

_ZN4absl12lts_202308029MutexLockD2Ev.exit:        ; preds = %entry
  ret void
}